target datalayout = "e-m:e-p270:32:32-p271:32:32-p272:64:64-i64:64-f80:128-n8:16:32:64-S128"
target triple = "x86_64-pc-linux-gnu"

@.str = private unnamed_addr constant [6 x i8] c"%s %s\00", align 1
@.str.1 = private unnamed_addr constant [5 x i8] c"YES\0A\00", align 1
@.str.2 = private unnamed_addr constant [4 x i8] c"NO\0A\00", align 1

; Function Attrs: noinline nounwind uwtable
define dso_local void @main() #0 {
  %1 = alloca [1000 x i8], align 16
  %2 = alloca [1000 x i8], align 16
  %3 = alloca [1000 x i8], align 16
  %4 = alloca [1000 x i8], align 16
  %5 = alloca i8, align 1
  %6 = alloca i32, align 4
  %7 = alloca i32, align 4
  %8 = alloca i32, align 4
  %9 = alloca i32, align 4
  %10 = alloca [26 x i32], align 16
  %11 = alloca [26 x i32], align 16
  %12 = alloca [26 x i32], align 16
  %13 = alloca [26 x i32], align 16
  store i32 0, i32* %9, align 4
  %14 = call i32 (i8*, ...) @__isoc99_scanf(i8* getelementptr inbounds ([6 x i8], [6 x i8]* @.str, i64 0, i64 0), [1000 x i8]* %1, [1000 x i8]* %2)
  %15 = getelementptr inbounds [1000 x i8], [1000 x i8]* %2, i64 0, i64 0
  %16 = call i64 @strlen(i8* %15) #3
  %17 = trunc i64 %16 to i32
  store i32 %17, i32* %8, align 4
  %18 = getelementptr inbounds [1000 x i8], [1000 x i8]* %1, i64 0, i64 0
  %19 = call i64 @strlen(i8* %18) #3
  %20 = trunc i64 %19 to i32
  store i32 %20, i32* %7, align 4
  store i32 0, i32* %6, align 4
  br label %21

21:                                               ; preds = %33, %0
  %22 = load i32, i32* %6, align 4
  %23 = load i32, i32* %7, align 4
  %24 = icmp slt i32 %22, %23
  br i1 %24, label %25, label %36

25:                                               ; preds = %21
  %26 = load i32, i32* %6, align 4
  %27 = sext i32 %26 to i64
  %28 = getelementptr inbounds [1000 x i8], [1000 x i8]* %1, i64 0, i64 %27
  %29 = load i8, i8* %28, align 1
  %30 = load i32, i32* %6, align 4
  %31 = sext i32 %30 to i64
  %32 = getelementptr inbounds [1000 x i8], [1000 x i8]* %3, i64 0, i64 %31
  store i8 %29, i8* %32, align 1
  br label %33

33:                                               ; preds = %25
  %34 = load i32, i32* %6, align 4
  %35 = add nsw i32 %34, 1
  store i32 %35, i32* %6, align 4
  br label %21

36:                                               ; preds = %21
  store i32 0, i32* %6, align 4
  br label %37

37:                                               ; preds = %49, %36
  %38 = load i32, i32* %6, align 4
  %39 = load i32, i32* %8, align 4
  %40 = icmp slt i32 %38, %39
  br i1 %40, label %41, label %52

41:                                               ; preds = %37
  %42 = load i32, i32* %6, align 4
  %43 = sext i32 %42 to i64
  %44 = getelementptr inbounds [1000 x i8], [1000 x i8]* %2, i64 0, i64 %43
  %45 = load i8, i8* %44, align 1
  %46 = load i32, i32* %6, align 4
  %47 = sext i32 %46 to i64
  %48 = getelementptr inbounds [1000 x i8], [1000 x i8]* %4, i64 0, i64 %47
  store i8 %45, i8* %48, align 1
  br label %49

49:                                               ; preds = %41
  %50 = load i32, i32* %6, align 4
  %51 = add nsw i32 %50, 1
  store i32 %51, i32* %6, align 4
  br label %37

52:                                               ; preds = %37
  store i32 0, i32* %6, align 4
  br label %53

53:                                               ; preds = %69, %52
  %54 = load i32, i32* %6, align 4
  %55 = icmp slt i32 %54, 26
  br i1 %55, label %56, label %72

56:                                               ; preds = %53
  %57 = load i32, i32* %6, align 4
  %58 = sext i32 %57 to i64
  %59 = getelementptr inbounds [26 x i32], [26 x i32]* %10, i64 0, i64 %58
  store i32 0, i32* %59, align 4
  %60 = load i32, i32* %6, align 4
  %61 = sext i32 %60 to i64
  %62 = getelementptr inbounds [26 x i32], [26 x i32]* %11, i64 0, i64 %61
  store i32 0, i32* %62, align 4
  %63 = load i32, i32* %6, align 4
  %64 = sext i32 %63 to i64
  %65 = getelementptr inbounds [26 x i32], [26 x i32]* %12, i64 0, i64 %64
  store i32 0, i32* %65, align 4
  %66 = load i32, i32* %6, align 4
  %67 = sext i32 %66 to i64
  %68 = getelementptr inbounds [26 x i32], [26 x i32]* %13, i64 0, i64 %67
  store i32 0, i32* %68, align 4
  br label %69

69:                                               ; preds = %56
  %70 = load i32, i32* %6, align 4
  %71 = add nsw i32 %70, 1
  store i32 %71, i32* %6, align 4
  br label %53

72:                                               ; preds = %53
  store i32 0, i32* %6, align 4
  br label %73

73:                                               ; preds = %129, %72
  %74 = load i32, i32* %6, align 4
  %75 = load i32, i32* %7, align 4
  %76 = icmp slt i32 %74, %75
  br i1 %76, label %77, label %132

77:                                               ; preds = %73
  %78 = load i32, i32* %6, align 4
  %79 = sext i32 %78 to i64
  %80 = getelementptr inbounds [1000 x i8], [1000 x i8]* %3, i64 0, i64 %79
  %81 = load i8, i8* %80, align 1
  %82 = sext i8 %81 to i32
  %83 = icmp sge i32 %82, 97
  br i1 %83, label %84, label %102

84:                                               ; preds = %77
  %85 = load i32, i32* %6, align 4
  %86 = sext i32 %85 to i64
  %87 = getelementptr inbounds [1000 x i8], [1000 x i8]* %3, i64 0, i64 %86
  %88 = load i8, i8* %87, align 1
  %89 = sext i8 %88 to i32
  %90 = icmp sle i32 %89, 122
  br i1 %90, label %91, label %102

91:                                               ; preds = %84
  %92 = load i32, i32* %6, align 4
  %93 = sext i32 %92 to i64
  %94 = getelementptr inbounds [1000 x i8], [1000 x i8]* %3, i64 0, i64 %93
  %95 = load i8, i8* %94, align 1
  %96 = sext i8 %95 to i32
  %97 = sub nsw i32 %96, 97
  %98 = sext i32 %97 to i64
  %99 = getelementptr inbounds [26 x i32], [26 x i32]* %10, i64 0, i64 %98
  %100 = load i32, i32* %99, align 4
  %101 = add nsw i32 %100, 1
  store i32 %101, i32* %99, align 4
  br label %128

102:                                              ; preds = %84, %77
  %103 = load i32, i32* %6, align 4
  %104 = sext i32 %103 to i64
  %105 = getelementptr inbounds [1000 x i8], [1000 x i8]* %3, i64 0, i64 %104
  %106 = load i8, i8* %105, align 1
  %107 = sext i8 %106 to i32
  %108 = icmp sge i32 %107, 65
  br i1 %108, label %109, label %127

109:                                              ; preds = %102
  %110 = load i32, i32* %6, align 4
  %111 = sext i32 %110 to i64
  %112 = getelementptr inbounds [1000 x i8], [1000 x i8]* %3, i64 0, i64 %111
  %113 = load i8, i8* %112, align 1
  %114 = sext i8 %113 to i32
  %115 = icmp sle i32 %114, 90
  br i1 %115, label %116, label %127

116:                                              ; preds = %109
  %117 = load i32, i32* %6, align 4
  %118 = sext i32 %117 to i64
  %119 = getelementptr inbounds [1000 x i8], [1000 x i8]* %3, i64 0, i64 %118
  %120 = load i8, i8* %119, align 1
  %121 = sext i8 %120 to i32
  %122 = sub nsw i32 %121, 65
  %123 = sext i32 %122 to i64
  %124 = getelementptr inbounds [26 x i32], [26 x i32]* %11, i64 0, i64 %123
  %125 = load i32, i32* %124, align 4
  %126 = add nsw i32 %125, 1
  store i32 %126, i32* %124, align 4
  br label %127

127:                                              ; preds = %116, %109, %102
  br label %128

128:                                              ; preds = %127, %91
  br label %129

129:                                              ; preds = %128
  %130 = load i32, i32* %6, align 4
  %131 = add nsw i32 %130, 1
  store i32 %131, i32* %6, align 4
  br label %73

132:                                              ; preds = %73
  store i32 0, i32* %6, align 4
  br label %133

133:                                              ; preds = %189, %132
  %134 = load i32, i32* %6, align 4
  %135 = load i32, i32* %8, align 4
  %136 = icmp slt i32 %134, %135
  br i1 %136, label %137, label %192

137:                                              ; preds = %133
  %138 = load i32, i32* %6, align 4
  %139 = sext i32 %138 to i64
  %140 = getelementptr inbounds [1000 x i8], [1000 x i8]* %2, i64 0, i64 %139
  %141 = load i8, i8* %140, align 1
  %142 = sext i8 %141 to i32
  %143 = icmp sge i32 %142, 97
  br i1 %143, label %144, label %162

144:                                              ; preds = %137
  %145 = load i32, i32* %6, align 4
  %146 = sext i32 %145 to i64
  %147 = getelementptr inbounds [1000 x i8], [1000 x i8]* %2, i64 0, i64 %146
  %148 = load i8, i8* %147, align 1
  %149 = sext i8 %148 to i32
  %150 = icmp sle i32 %149, 122
  br i1 %150, label %151, label %162

151:                                              ; preds = %144
  %152 = load i32, i32* %6, align 4
  %153 = sext i32 %152 to i64
  %154 = getelementptr inbounds [1000 x i8], [1000 x i8]* %2, i64 0, i64 %153
  %155 = load i8, i8* %154, align 1
  %156 = sext i8 %155 to i32
  %157 = sub nsw i32 %156, 97
  %158 = sext i32 %157 to i64
  %159 = getelementptr inbounds [26 x i32], [26 x i32]* %12, i64 0, i64 %158
  %160 = load i32, i32* %159, align 4
  %161 = add nsw i32 %160, 1
  store i32 %161, i32* %159, align 4
  br label %188

162:                                              ; preds = %144, %137
  %163 = load i32, i32* %6, align 4
  %164 = sext i32 %163 to i64
  %165 = getelementptr inbounds [1000 x i8], [1000 x i8]* %2, i64 0, i64 %164
  %166 = load i8, i8* %165, align 1
  %167 = sext i8 %166 to i32
  %168 = icmp sge i32 %167, 65
  br i1 %168, label %169, label %187

169:                                              ; preds = %162
  %170 = load i32, i32* %6, align 4
  %171 = sext i32 %170 to i64
  %172 = getelementptr inbounds [1000 x i8], [1000 x i8]* %2, i64 0, i64 %171
  %173 = load i8, i8* %172, align 1
  %174 = sext i8 %173 to i32
  %175 = icmp sle i32 %174, 90
  br i1 %175, label %176, label %187

176:                                              ; preds = %169
  %177 = load i32, i32* %6, align 4
  %178 = sext i32 %177 to i64
  %179 = getelementptr inbounds [1000 x i8], [1000 x i8]* %2, i64 0, i64 %178
  %180 = load i8, i8* %179, align 1
  %181 = sext i8 %180 to i32
  %182 = sub nsw i32 %181, 65
  %183 = sext i32 %182 to i64
  %184 = getelementptr inbounds [26 x i32], [26 x i32]* %13, i64 0, i64 %183
  %185 = load i32, i32* %184, align 4
  %186 = add nsw i32 %185, 1
  store i32 %186, i32* %184, align 4
  br label %187

187:                                              ; preds = %176, %169, %162
  br label %188

188:                                              ; preds = %187, %151
  br label %189

189:                                              ; preds = %188
  %190 = load i32, i32* %6, align 4
  %191 = add nsw i32 %190, 1
  store i32 %191, i32* %6, align 4
  br label %133

192:                                              ; preds = %133
  store i32 0, i32* %6, align 4
  br label %193

193:                                              ; preds = %223, %192
  %194 = load i32, i32* %6, align 4
  %195 = icmp slt i32 %194, 26
  br i1 %195, label %196, label %226

196:                                              ; preds = %193
  %197 = load i32, i32* %6, align 4
  %198 = sext i32 %197 to i64
  %199 = getelementptr inbounds [26 x i32], [26 x i32]* %10, i64 0, i64 %198
  %200 = load i32, i32* %199, align 4
  %201 = load i32, i32* %6, align 4
  %202 = sext i32 %201 to i64
  %203 = getelementptr inbounds [26 x i32], [26 x i32]* %12, i64 0, i64 %202
  %204 = load i32, i32* %203, align 4
  %205 = icmp eq i32 %200, %204
  br i1 %205, label %206, label %219

206:                                              ; preds = %196
  %207 = load i32, i32* %6, align 4
  %208 = sext i32 %207 to i64
  %209 = getelementptr inbounds [26 x i32], [26 x i32]* %11, i64 0, i64 %208
  %210 = load i32, i32* %209, align 4
  %211 = load i32, i32* %6, align 4
  %212 = sext i32 %211 to i64
  %213 = getelementptr inbounds [26 x i32], [26 x i32]* %13, i64 0, i64 %212
  %214 = load i32, i32* %213, align 4
  %215 = icmp eq i32 %210, %214
  br i1 %215, label %216, label %219

216:                                              ; preds = %206
  %217 = load i32, i32* %9, align 4
  %218 = add nsw i32 %217, 1
  store i32 %218, i32* %9, align 4
  br label %222

219:                                              ; preds = %206, %196
  %220 = load i32, i32* %9, align 4
  %221 = add nsw i32 %220, -1
  store i32 %221, i32* %9, align 4
  br label %222

222:                                              ; preds = %219, %216
  br label %223

223:                                              ; preds = %222
  %224 = load i32, i32* %6, align 4
  %225 = add nsw i32 %224, 1
  store i32 %225, i32* %6, align 4
  br label %193

226:                                              ; preds = %193
  %227 = load i32, i32* %9, align 4
  %228 = icmp eq i32 %227, 26
  br i1 %228, label %229, label %231

229:                                              ; preds = %226
  %230 = call i32 (i8*, ...) @printf(i8* getelementptr inbounds ([5 x i8], [5 x i8]* @.str.1, i64 0, i64 0))
  br label %233

231:                                              ; preds = %226
  %232 = call i32 (i8*, ...) @printf(i8* getelementptr inbounds ([4 x i8], [4 x i8]* @.str.2, i64 0, i64 0))
  br label %233

233:                                              ; preds = %231, %229
  ret void
}